; Function Attrs: mustprogress nofree norecurse nosync nounwind willreturn memory(read, inaccessiblemem: none) uwtable
define noundef zeroext i1 @_ZNK8proxygen15HTTPTransaction16mustQueueIngressEv(ptr nocapture noundef nonnull readonly align 8 dereferenceable(912) %this) local_unnamed_addr #12 align 2 {
entry:
  %ingressPaused_ = getelementptr inbounds i8, ptr %this, i64 728
  %bf.load = load i32, ptr %ingressPaused_, align 8
  %0 = and i32 %bf.load, 1
  %bf.cast.not = icmp eq i32 %0, 0
  br i1 %bf.cast.not, label %lor.rhs, label %lor.end

lor.rhs:                                          ; preds = %entry
  %deferredIngress_ = getelementptr inbounds i8, ptr %this, i64 152
  %1 = load ptr, ptr %deferredIngress_, align 8
  %cmp.i.not = icmp eq ptr %1, null
  br i1 %cmp.i.not, label %lor.end, label %land.rhs

land.rhs:                                         ; preds = %lor.rhs
  %_M_finish.i.i = getelementptr inbounds i8, ptr %1, i64 48
  %_M_start.i.i = getelementptr inbounds i8, ptr %1, i64 16
  %2 = load ptr, ptr %_M_finish.i.i, align 8
  %3 = load ptr, ptr %_M_start.i.i, align 8
  %cmp.i.i.i = icmp ne ptr %2, %3
  br label %lor.end

lor.end:                                          ; preds = %lor.rhs, %land.rhs, %entry
  %4 = phi i1 [ true, %entry ], [ false, %lor.rhs ], [ %cmp.i.i.i, %land.rhs ]
  ret i1 %4
}